; Function Attrs: nounwind uwtable
define void @Ga2_ManRefinePrintPPis(ptr noundef readonly captures(none) %0) local_unnamed_addr #4 {
  %2 = tail call noalias dereferenceable_or_null(16) ptr @malloc(i64 noundef 16) #27
  %3 = getelementptr inbounds nuw i8, ptr %2, i64 4
  store i32 0, ptr %3, align 4
  store i32 100, ptr %2, align 8
  %4 = tail call noalias dereferenceable_or_null(400) ptr @malloc(i64 noundef 400) #27
  %5 = getelementptr inbounds nuw i8, ptr %2, i64 8
  store ptr %4, ptr %5, align 8
  %6 = getelementptr inbounds nuw i8, ptr %0, i64 48
  %7 = load ptr, ptr %6, align 8
  %8 = getelementptr i8, ptr %7, i64 4
  %.val3043 = load i32, ptr %8, align 4
  %9 = icmp sgt i32 %.val3043, 0
  br i1 %9, label %.lr.ph, label %.critedge

.lr.ph:                                           ; preds = %1
  %10 = getelementptr i8, ptr %0, i64 24
  %11 = getelementptr inbounds nuw i8, ptr %0, i64 16
  br label %12

12:                                               ; preds = %.lr.ph, %60
  %13 = phi ptr [ %7, %.lr.ph ], [ %61, %60 ]
  %indvars.iv = phi i64 [ 0, %.lr.ph ], [ %indvars.iv.next, %60 ]
  %14 = load ptr, ptr %0, align 8
  %15 = getelementptr i8, ptr %13, i64 8
  %.val32 = load ptr, ptr %15, align 8
  %16 = getelementptr inbounds nuw i32, ptr %.val32, i64 %indvars.iv
  %17 = load i32, ptr %16, align 4
  %18 = getelementptr i8, ptr %14, i64 32
  %.val34 = load ptr, ptr %18, align 8
  %19 = sext i32 %17 to i64
  %.not = icmp eq ptr %.val34, null
  br i1 %.not, label %.critedge.loopexit, label %20

20:                                               ; preds = %12
  %.not27 = icmp eq i64 %indvars.iv, 0
  br i1 %.not27, label %60, label %21

21:                                               ; preds = %20
  %.val4.i = load ptr, ptr %10, align 8
  %22 = getelementptr i8, ptr %.val4.i, i64 8
  %.val4.val.i = load ptr, ptr %22, align 8
  %23 = shl nsw i64 %19, 2
  %24 = getelementptr inbounds i8, ptr %.val4.val.i, i64 %23
  %25 = load i32, ptr %24, align 4
  %26 = icmp sgt i32 %25, -1
  br i1 %26, label %Ga2_ObjIsAbs.exit, label %Ga2_ObjIsAbs.exit.thread

Ga2_ObjIsAbs.exit:                                ; preds = %21
  %27 = load ptr, ptr %11, align 8
  %28 = shl nuw nsw i32 %25, 1
  %29 = getelementptr i8, ptr %27, i64 8
  %.val.i.i = load ptr, ptr %29, align 8
  %30 = zext nneg i32 %28 to i64
  %31 = getelementptr inbounds nuw ptr, ptr %.val.i.i, i64 %30
  %32 = load ptr, ptr %31, align 8
  %.not42 = icmp eq ptr %32, null
  br i1 %.not42, label %Ga2_ObjIsAbs.exit.thread, label %60

Ga2_ObjIsAbs.exit.thread:                         ; preds = %21, %Ga2_ObjIsAbs.exit
  %33 = load i32, ptr %3, align 4
  %34 = load i32, ptr %2, align 8
  %35 = icmp eq i32 %33, %34
  br i1 %35, label %36, label %.Vec_IntGrow.exit10_crit_edge.i

.Vec_IntGrow.exit10_crit_edge.i:                  ; preds = %Ga2_ObjIsAbs.exit.thread
  %.pre.i = load ptr, ptr %5, align 8
  br label %Vec_IntPush.exit

36:                                               ; preds = %Ga2_ObjIsAbs.exit.thread
  %37 = icmp slt i32 %33, 16
  br i1 %37, label %38, label %45

38:                                               ; preds = %36
  %39 = load ptr, ptr %5, align 8
  %.not9.i.i = icmp eq ptr %39, null
  br i1 %.not9.i.i, label %42, label %40

40:                                               ; preds = %38
  %41 = tail call dereferenceable_or_null(64) ptr @realloc(ptr noundef nonnull %39, i64 noundef 64) #26
  br label %Vec_IntGrow.exit.i

42:                                               ; preds = %38
  %43 = tail call noalias dereferenceable_or_null(64) ptr @malloc(i64 noundef 64) #27
  br label %Vec_IntGrow.exit.i

Vec_IntGrow.exit.i:                               ; preds = %42, %40
  %44 = phi ptr [ %41, %40 ], [ %43, %42 ]
  store ptr %44, ptr %5, align 8
  store i32 16, ptr %2, align 8
  br label %Vec_IntPush.exit

45:                                               ; preds = %36
  %46 = shl nuw nsw i32 %33, 1
  %47 = load ptr, ptr %5, align 8
  %.not9.i9.i = icmp eq ptr %47, null
  %48 = zext nneg i32 %46 to i64
  %49 = shl nuw nsw i64 %48, 2
  br i1 %.not9.i9.i, label %52, label %50

50:                                               ; preds = %45
  %51 = tail call ptr @realloc(ptr noundef nonnull %47, i64 noundef %49) #26
  br label %54

52:                                               ; preds = %45
  %53 = tail call noalias ptr @malloc(i64 noundef %49) #27
  br label %54

54:                                               ; preds = %52, %50
  %55 = phi ptr [ %51, %50 ], [ %53, %52 ]
  store ptr %55, ptr %5, align 8
  store i32 %46, ptr %2, align 8
  br label %Vec_IntPush.exit

Vec_IntPush.exit:                                 ; preds = %.Vec_IntGrow.exit10_crit_edge.i, %Vec_IntGrow.exit.i, %54
  %56 = phi ptr [ %.pre.i, %.Vec_IntGrow.exit10_crit_edge.i ], [ %55, %54 ], [ %44, %Vec_IntGrow.exit.i ]
  %57 = add nsw i32 %33, 1
  store i32 %57, ptr %3, align 4
  %58 = sext i32 %33 to i64
  %59 = getelementptr inbounds i32, ptr %56, i64 %58
  store i32 %17, ptr %59, align 4
  %.pre = load ptr, ptr %6, align 8
  br label %60

60:                                               ; preds = %Ga2_ObjIsAbs.exit, %20, %Vec_IntPush.exit
  %61 = phi ptr [ %13, %Ga2_ObjIsAbs.exit ], [ %13, %20 ], [ %.pre, %Vec_IntPush.exit ]
  %indvars.iv.next = add nuw nsw i64 %indvars.iv, 1
  %62 = getelementptr i8, ptr %61, i64 4
  %.val30 = load i32, ptr %62, align 4
  %63 = sext i32 %.val30 to i64
  %64 = icmp slt i64 %indvars.iv.next, %63
  br i1 %64, label %12, label %.critedge.loopexit, !llvm.loop !60

.critedge.loopexit:                               ; preds = %60, %12
  %.val29.pre = load i32, ptr %3, align 4
  br label %.critedge

.critedge:                                        ; preds = %.critedge.loopexit, %1
  %.val29 = phi i32 [ %.val29.pre, %.critedge.loopexit ], [ 0, %1 ]
  %65 = tail call i32 (ptr, ...) @printf(ptr noundef nonnull dereferenceable(1) @.str.35, i32 noundef %.val29)
  %.val38 = load ptr, ptr %5, align 8
  %66 = sext i32 %.val29 to i64
  tail call void @qsort(ptr noundef %.val38, i64 noundef %66, i64 noundef 4, ptr noundef nonnull @Vec_IntSortCompare2) #28
  %67 = icmp sgt i32 %.val29, 0
  br i1 %67, label %.lr.ph47.preheader, label %.critedge2

.lr.ph47.preheader:                               ; preds = %.critedge
  %wide.trip.count = zext nneg i32 %.val29 to i64
  br label %.lr.ph47

.lr.ph47:                                         ; preds = %.lr.ph47.preheader, %70
  %indvars.iv49 = phi i64 [ 0, %.lr.ph47.preheader ], [ %indvars.iv.next50, %70 ]
  %68 = load ptr, ptr %0, align 8
  %69 = getelementptr i8, ptr %68, i64 32
  %.val33 = load ptr, ptr %69, align 8
  %.not26 = icmp eq ptr %.val33, null
  br i1 %.not26, label %.sink.split, label %70

70:                                               ; preds = %.lr.ph47
  %71 = getelementptr inbounds nuw i32, ptr %.val38, i64 %indvars.iv49
  %72 = load i32, ptr %71, align 4
  %73 = tail call i32 (ptr, ...) @printf(ptr noundef nonnull dereferenceable(1) @.str.23, i32 noundef %72)
  %indvars.iv.next50 = add nuw nsw i64 %indvars.iv49, 1
  %exitcond.not = icmp eq i64 %indvars.iv.next50, %wide.trip.count
  br i1 %exitcond.not, label %.sink.split, label %.lr.ph47, !llvm.loop !61

.critedge2:                                       ; preds = %.critedge
  %putchar = tail call i32 @putchar(i32 10)
  %.not.i = icmp eq ptr %.val38, null
  br i1 %.not.i, label %Vec_IntFree.exit, label %74

.sink.split:                                      ; preds = %70, %.lr.ph47
  %putchar54 = tail call i32 @putchar(i32 10)
  br label %74

74:                                               ; preds = %.sink.split, %.critedge2
  tail call void @free(ptr noundef nonnull %.val38) #28
  br label %Vec_IntFree.exit

Vec_IntFree.exit:                                 ; preds = %.critedge2, %74
  tail call void @free(ptr noundef nonnull %2) #28
  ret void
}